target datalayout = "e-m:e-p270:32:32-p271:32:32-p272:64:64-i64:64-i128:128-f80:128-n8:16:32:64-S128"
target triple = "x86_64-unknown-linux-gnu"

%"class.icu_75::UIterCollationIterator" = type { %"class.icu_75::CollationIterator.base", ptr }
%"class.icu_75::CollationIterator.base" = type <{ %"class.icu_75::UObject", ptr, ptr, %"class.icu_75::CollationIterator::CEBuffer", i32, [4 x i8], ptr, i32, i8 }>
%"class.icu_75::UObject" = type { ptr }
%"class.icu_75::CollationIterator::CEBuffer" = type { i32, %"class.icu_75::MaybeStackArray.0" }
%"class.icu_75::MaybeStackArray.0" = type { ptr, i32, i8, [40 x i64] }
%struct.UCharIterator = type { ptr, i32, i32, i32, i32, i32, ptr, ptr, ptr, ptr, ptr, ptr, ptr, ptr, ptr, ptr }
%"class.icu_75::FCDUIterCollationIterator" = type { %"class.icu_75::UIterCollationIterator", i32, i32, i32, i32, ptr, %"class.icu_75::UnicodeString" }
%"class.icu_75::UnicodeString" = type { %"class.icu_75::Replaceable", %"union.icu_75::UnicodeString::StackBufferOrFields" }
%"class.icu_75::Replaceable" = type { %"class.icu_75::UObject" }
%"union.icu_75::UnicodeString::StackBufferOrFields" = type { %struct.anon.1, [32 x i8] }
%struct.anon.1 = type { i16, i32, i32, ptr }

; Function Attrs: mustprogress uwtable
define void @_ZN6icu_7522UIterCollationIterator13resetToOffsetEi(ptr noundef nonnull align 8 dereferenceable(400) %this, i32 noundef %newOffset) unnamed_addr #1 align 2 {
entry:
  %this.addr = alloca ptr, align 8
  %newOffset.addr = alloca i32, align 4
  store ptr %this, ptr %this.addr, align 8
  store i32 %newOffset, ptr %newOffset.addr, align 4
  %this1 = load ptr, ptr %this.addr, align 8
  call void @_ZN6icu_7517CollationIterator5resetEv(ptr noundef nonnull align 8 dereferenceable(389) %this1)
  %iter = getelementptr inbounds %"class.icu_75::UIterCollationIterator", ptr %this1, i32 0, i32 1
  %0 = load ptr, ptr %iter, align 8
  %move = getelementptr inbounds %struct.UCharIterator, ptr %0, i32 0, i32 7
  %1 = load ptr, ptr %move, align 8
  %iter2 = getelementptr inbounds %"class.icu_75::UIterCollationIterator", ptr %this1, i32 0, i32 1
  %2 = load ptr, ptr %iter2, align 8
  %3 = load i32, ptr %newOffset.addr, align 4
  %call = call noundef i32 %1(ptr noundef %2, i32 noundef %3, i32 noundef 0)
  ret void
}

; Function Attrs: mustprogress uwtable
define void @_ZN6icu_7525FCDUIterCollationIterator13resetToOffsetEi(ptr noundef nonnull align 8 dereferenceable(488) %this, i32 noundef %newOffset) unnamed_addr #1 align 2 {
entry:
  %this.addr = alloca ptr, align 8
  %newOffset.addr = alloca i32, align 4
  store ptr %this, ptr %this.addr, align 8
  store i32 %newOffset, ptr %newOffset.addr, align 4
  %this1 = load ptr, ptr %this.addr, align 8
  %0 = load i32, ptr %newOffset.addr, align 4
  call void @_ZN6icu_7522UIterCollationIterator13resetToOffsetEi(ptr noundef nonnull align 8 dereferenceable(400) %this1, i32 noundef %0)
  %1 = load i32, ptr %newOffset.addr, align 4
  %start = getelementptr inbounds %"class.icu_75::FCDUIterCollationIterator", ptr %this1, i32 0, i32 2
  store i32 %1, ptr %start, align 4
  %state = getelementptr inbounds %"class.icu_75::FCDUIterCollationIterator", ptr %this1, i32 0, i32 1
  store i32 0, ptr %state, align 8
  ret void
}