; Function Attrs: mustprogress uwtable
define void @_ZN6icu_7525FCDUIterCollationIterator13resetToOffsetEi(ptr noundef nonnull align 8 dereferenceable(488) %this, i32 noundef %newOffset) unnamed_addr #1 align 2 {
entry:
  tail call void @_ZN6icu_7517CollationIterator5resetEv(ptr noundef nonnull align 8 dereferenceable(389) %this)
  %iter.i = getelementptr inbounds i8, ptr %this, i64 392
  %0 = load ptr, ptr %iter.i, align 8
  %move.i = getelementptr inbounds i8, ptr %0, i64 40
  %1 = load ptr, ptr %move.i, align 8
  %call.i = tail call noundef i32 %1(ptr noundef %0, i32 noundef %newOffset, i32 noundef 0)
  %start = getelementptr inbounds i8, ptr %this, i64 404
  store i32 %newOffset, ptr %start, align 4
  %state = getelementptr inbounds i8, ptr %this, i64 400
  store i32 0, ptr %state, align 8
  ret void
}